target datalayout = "e-m:e-p270:32:32-p271:32:32-p272:64:64-i64:64-i128:128-f80:128-n8:16:32:64-S128"
target triple = "x86_64-pc-linux-gnu"

%struct.ssl_primary_config = type { ptr, ptr, ptr, ptr, ptr, ptr, ptr, ptr, ptr, ptr, ptr, ptr, i8, i32, i8, i8 }

; Function Attrs: nounwind uwtable
define internal zeroext i1 @match_ssl_primary_config(ptr noundef %0, ptr noundef %1, ptr noundef %2) #0 {
  %4 = alloca i1, align 1
  %5 = alloca ptr, align 8
  %6 = alloca ptr, align 8
  %7 = alloca ptr, align 8
  store ptr %0, ptr %5, align 8
  store ptr %1, ptr %6, align 8
  store ptr %2, ptr %7, align 8
  %8 = load ptr, ptr %6, align 8
  %9 = getelementptr inbounds %struct.ssl_primary_config, ptr %8, i32 0, i32 14
  %10 = load i8, ptr %9, align 8
  %11 = zext i8 %10 to i32
  %12 = load ptr, ptr %7, align 8
  %13 = getelementptr inbounds %struct.ssl_primary_config, ptr %12, i32 0, i32 14
  %14 = load i8, ptr %13, align 8
  %15 = zext i8 %14 to i32
  %16 = icmp eq i32 %11, %15
  br i1 %16, label %17, label %177

17:                                               ; preds = %3
  %18 = load ptr, ptr %6, align 8
  %19 = getelementptr inbounds %struct.ssl_primary_config, ptr %18, i32 0, i32 13
  %20 = load i32, ptr %19, align 4
  %21 = load ptr, ptr %7, align 8
  %22 = getelementptr inbounds %struct.ssl_primary_config, ptr %21, i32 0, i32 13
  %23 = load i32, ptr %22, align 4
  %24 = icmp eq i32 %20, %23
  br i1 %24, label %25, label %177

25:                                               ; preds = %17
  %26 = load ptr, ptr %6, align 8
  %27 = getelementptr inbounds %struct.ssl_primary_config, ptr %26, i32 0, i32 12
  %28 = load i8, ptr %27, align 8
  %29 = zext i8 %28 to i32
  %30 = load ptr, ptr %7, align 8
  %31 = getelementptr inbounds %struct.ssl_primary_config, ptr %30, i32 0, i32 12
  %32 = load i8, ptr %31, align 8
  %33 = zext i8 %32 to i32
  %34 = icmp eq i32 %29, %33
  br i1 %34, label %35, label %177

35:                                               ; preds = %25
  %36 = load ptr, ptr %6, align 8
  %37 = getelementptr inbounds %struct.ssl_primary_config, ptr %36, i32 0, i32 15
  %38 = load i8, ptr %37, align 1
  %39 = and i8 %38, 1
  %40 = zext i8 %39 to i32
  %41 = load ptr, ptr %7, align 8
  %42 = getelementptr inbounds %struct.ssl_primary_config, ptr %41, i32 0, i32 15
  %43 = load i8, ptr %42, align 1
  %44 = and i8 %43, 1
  %45 = zext i8 %44 to i32
  %46 = icmp eq i32 %40, %45
  br i1 %46, label %47, label %177

47:                                               ; preds = %35
  %48 = load ptr, ptr %6, align 8
  %49 = getelementptr inbounds %struct.ssl_primary_config, ptr %48, i32 0, i32 15
  %50 = load i8, ptr %49, align 1
  %51 = lshr i8 %50, 1
  %52 = and i8 %51, 1
  %53 = zext i8 %52 to i32
  %54 = load ptr, ptr %7, align 8
  %55 = getelementptr inbounds %struct.ssl_primary_config, ptr %54, i32 0, i32 15
  %56 = load i8, ptr %55, align 1
  %57 = lshr i8 %56, 1
  %58 = and i8 %57, 1
  %59 = zext i8 %58 to i32
  %60 = icmp eq i32 %53, %59
  br i1 %60, label %61, label %177

61:                                               ; preds = %47
  %62 = load ptr, ptr %6, align 8
  %63 = getelementptr inbounds %struct.ssl_primary_config, ptr %62, i32 0, i32 15
  %64 = load i8, ptr %63, align 1
  %65 = lshr i8 %64, 2
  %66 = and i8 %65, 1
  %67 = zext i8 %66 to i32
  %68 = load ptr, ptr %7, align 8
  %69 = getelementptr inbounds %struct.ssl_primary_config, ptr %68, i32 0, i32 15
  %70 = load i8, ptr %69, align 1
  %71 = lshr i8 %70, 2
  %72 = and i8 %71, 1
  %73 = zext i8 %72 to i32
  %74 = icmp eq i32 %67, %73
  br i1 %74, label %75, label %177

75:                                               ; preds = %61
  %76 = load ptr, ptr %6, align 8
  %77 = getelementptr inbounds %struct.ssl_primary_config, ptr %76, i32 0, i32 8
  %78 = load ptr, ptr %77, align 8
  %79 = load ptr, ptr %7, align 8
  %80 = getelementptr inbounds %struct.ssl_primary_config, ptr %79, i32 0, i32 8
  %81 = load ptr, ptr %80, align 8
  %82 = call zeroext i1 @blobcmp(ptr noundef %78, ptr noundef %81)
  br i1 %82, label %83, label %177

83:                                               ; preds = %75
  %84 = load ptr, ptr %6, align 8
  %85 = getelementptr inbounds %struct.ssl_primary_config, ptr %84, i32 0, i32 9
  %86 = load ptr, ptr %85, align 8
  %87 = load ptr, ptr %7, align 8
  %88 = getelementptr inbounds %struct.ssl_primary_config, ptr %87, i32 0, i32 9
  %89 = load ptr, ptr %88, align 8
  %90 = call zeroext i1 @blobcmp(ptr noundef %86, ptr noundef %89)
  br i1 %90, label %91, label %177

91:                                               ; preds = %83
  %92 = load ptr, ptr %6, align 8
  %93 = getelementptr inbounds %struct.ssl_primary_config, ptr %92, i32 0, i32 10
  %94 = load ptr, ptr %93, align 8
  %95 = load ptr, ptr %7, align 8
  %96 = getelementptr inbounds %struct.ssl_primary_config, ptr %95, i32 0, i32 10
  %97 = load ptr, ptr %96, align 8
  %98 = call zeroext i1 @blobcmp(ptr noundef %94, ptr noundef %97)
  br i1 %98, label %99, label %177

99:                                               ; preds = %91
  %100 = load ptr, ptr %6, align 8
  %101 = getelementptr inbounds %struct.ssl_primary_config, ptr %100, i32 0, i32 0
  %102 = load ptr, ptr %101, align 8
  %103 = load ptr, ptr %7, align 8
  %104 = getelementptr inbounds %struct.ssl_primary_config, ptr %103, i32 0, i32 0
  %105 = load ptr, ptr %104, align 8
  %106 = call zeroext i1 @Curl_safecmp(ptr noundef %102, ptr noundef %105)
  br i1 %106, label %107, label %177

107:                                              ; preds = %99
  %108 = load ptr, ptr %6, align 8
  %109 = getelementptr inbounds %struct.ssl_primary_config, ptr %108, i32 0, i32 1
  %110 = load ptr, ptr %109, align 8
  %111 = load ptr, ptr %7, align 8
  %112 = getelementptr inbounds %struct.ssl_primary_config, ptr %111, i32 0, i32 1
  %113 = load ptr, ptr %112, align 8
  %114 = call zeroext i1 @Curl_safecmp(ptr noundef %110, ptr noundef %113)
  br i1 %114, label %115, label %177

115:                                              ; preds = %107
  %116 = load ptr, ptr %6, align 8
  %117 = getelementptr inbounds %struct.ssl_primary_config, ptr %116, i32 0, i32 2
  %118 = load ptr, ptr %117, align 8
  %119 = load ptr, ptr %7, align 8
  %120 = getelementptr inbounds %struct.ssl_primary_config, ptr %119, i32 0, i32 2
  %121 = load ptr, ptr %120, align 8
  %122 = call zeroext i1 @Curl_safecmp(ptr noundef %118, ptr noundef %121)
  br i1 %122, label %123, label %177

123:                                              ; preds = %115
  %124 = load ptr, ptr %6, align 8
  %125 = getelementptr inbounds %struct.ssl_primary_config, ptr %124, i32 0, i32 3
  %126 = load ptr, ptr %125, align 8
  %127 = load ptr, ptr %7, align 8
  %128 = getelementptr inbounds %struct.ssl_primary_config, ptr %127, i32 0, i32 3
  %129 = load ptr, ptr %128, align 8
  %130 = call zeroext i1 @Curl_safecmp(ptr noundef %126, ptr noundef %129)
  br i1 %130, label %131, label %177

131:                                              ; preds = %123
  %132 = load ptr, ptr %6, align 8
  %133 = getelementptr inbounds %struct.ssl_primary_config, ptr %132, i32 0, i32 4
  %134 = load ptr, ptr %133, align 8
  %135 = load ptr, ptr %7, align 8
  %136 = getelementptr inbounds %struct.ssl_primary_config, ptr %135, i32 0, i32 4
  %137 = load ptr, ptr %136, align 8
  %138 = call i32 @curl_strequal(ptr noundef %134, ptr noundef %137)
  %139 = icmp ne i32 %138, 0
  br i1 %139, label %140, label %177

140:                                              ; preds = %131
  %141 = load ptr, ptr %6, align 8
  %142 = getelementptr inbounds %struct.ssl_primary_config, ptr %141, i32 0, i32 5
  %143 = load ptr, ptr %142, align 8
  %144 = load ptr, ptr %7, align 8
  %145 = getelementptr inbounds %struct.ssl_primary_config, ptr %144, i32 0, i32 5
  %146 = load ptr, ptr %145, align 8
  %147 = call i32 @curl_strequal(ptr noundef %143, ptr noundef %146)
  %148 = icmp ne i32 %147, 0
  br i1 %148, label %149, label %177

149:                                              ; preds = %140
  %150 = load ptr, ptr %6, align 8
  %151 = getelementptr inbounds %struct.ssl_primary_config, ptr %150, i32 0, i32 11
  %152 = load ptr, ptr %151, align 8
  %153 = load ptr, ptr %7, align 8
  %154 = getelementptr inbounds %struct.ssl_primary_config, ptr %153, i32 0, i32 11
  %155 = load ptr, ptr %154, align 8
  %156 = call i32 @curl_strequal(ptr noundef %152, ptr noundef %155)
  %157 = icmp ne i32 %156, 0
  br i1 %157, label %158, label %177

158:                                              ; preds = %149
  %159 = load ptr, ptr %6, align 8
  %160 = getelementptr inbounds %struct.ssl_primary_config, ptr %159, i32 0, i32 7
  %161 = load ptr, ptr %160, align 8
  %162 = load ptr, ptr %7, align 8
  %163 = getelementptr inbounds %struct.ssl_primary_config, ptr %162, i32 0, i32 7
  %164 = load ptr, ptr %163, align 8
  %165 = call i32 @curl_strequal(ptr noundef %161, ptr noundef %164)
  %166 = icmp ne i32 %165, 0
  br i1 %166, label %167, label %177

167:                                              ; preds = %158
  %168 = load ptr, ptr %6, align 8
  %169 = getelementptr inbounds %struct.ssl_primary_config, ptr %168, i32 0, i32 6
  %170 = load ptr, ptr %169, align 8
  %171 = load ptr, ptr %7, align 8
  %172 = getelementptr inbounds %struct.ssl_primary_config, ptr %171, i32 0, i32 6
  %173 = load ptr, ptr %172, align 8
  %174 = call i32 @curl_strequal(ptr noundef %170, ptr noundef %173)
  %175 = icmp ne i32 %174, 0
  br i1 %175, label %176, label %177

176:                                              ; preds = %167
  store i1 true, ptr %4, align 1
  br label %178

177:                                              ; preds = %167, %158, %149, %140, %131, %123, %115, %107, %99, %91, %83, %75, %61, %47, %35, %25, %17, %3
  store i1 false, ptr %4, align 1
  br label %178

178:                                              ; preds = %177, %176
  %179 = load i1, ptr %4, align 1
  ret i1 %179
}