; Function Attrs: nounwind uwtable
define internal fastcc noundef zeroext i1 @match_ssl_primary_config(ptr noundef readonly captures(none) %0, ptr noundef readonly captures(none) %1) unnamed_addr #2 {
  %3 = getelementptr inbounds nuw i8, ptr %0, i64 104
  %4 = load i8, ptr %3, align 8
  %5 = getelementptr inbounds nuw i8, ptr %1, i64 104
  %6 = load i8, ptr %5, align 8
  %7 = icmp eq i8 %4, %6
  br i1 %7, label %8, label %97

8:                                                ; preds = %2
  %9 = getelementptr inbounds nuw i8, ptr %0, i64 100
  %10 = load i32, ptr %9, align 4
  %11 = getelementptr inbounds nuw i8, ptr %1, i64 100
  %12 = load i32, ptr %11, align 4
  %13 = icmp eq i32 %10, %12
  br i1 %13, label %14, label %97

14:                                               ; preds = %8
  %15 = getelementptr inbounds nuw i8, ptr %0, i64 96
  %16 = load i8, ptr %15, align 8
  %17 = getelementptr inbounds nuw i8, ptr %1, i64 96
  %18 = load i8, ptr %17, align 8
  %19 = icmp eq i8 %16, %18
  br i1 %19, label %20, label %97

20:                                               ; preds = %14
  %21 = getelementptr inbounds nuw i8, ptr %0, i64 105
  %22 = load i8, ptr %21, align 1
  %23 = getelementptr inbounds nuw i8, ptr %1, i64 105
  %24 = load i8, ptr %23, align 1
  %25 = xor i8 %24, %22
  %26 = and i8 %25, 7
  %or.cond3 = icmp eq i8 %26, 0
  br i1 %or.cond3, label %27, label %97

27:                                               ; preds = %20
  %28 = getelementptr inbounds nuw i8, ptr %0, i64 64
  %29 = load ptr, ptr %28, align 8
  %30 = getelementptr inbounds nuw i8, ptr %1, i64 64
  %31 = load ptr, ptr %30, align 8
  %32 = tail call fastcc zeroext i1 @blobcmp(ptr noundef %29, ptr noundef %31)
  br i1 %32, label %33, label %97

33:                                               ; preds = %27
  %34 = getelementptr inbounds nuw i8, ptr %0, i64 72
  %35 = load ptr, ptr %34, align 8
  %36 = getelementptr inbounds nuw i8, ptr %1, i64 72
  %37 = load ptr, ptr %36, align 8
  %38 = tail call fastcc zeroext i1 @blobcmp(ptr noundef %35, ptr noundef %37)
  br i1 %38, label %39, label %97

39:                                               ; preds = %33
  %40 = getelementptr inbounds nuw i8, ptr %0, i64 80
  %41 = load ptr, ptr %40, align 8
  %42 = getelementptr inbounds nuw i8, ptr %1, i64 80
  %43 = load ptr, ptr %42, align 8
  %44 = tail call fastcc zeroext i1 @blobcmp(ptr noundef %41, ptr noundef %43)
  br i1 %44, label %45, label %97

45:                                               ; preds = %39
  %46 = load ptr, ptr %0, align 8
  %47 = load ptr, ptr %1, align 8
  %48 = tail call zeroext i1 @Curl_safecmp(ptr noundef %46, ptr noundef %47) #18
  br i1 %48, label %49, label %97

49:                                               ; preds = %45
  %50 = getelementptr inbounds nuw i8, ptr %0, i64 8
  %51 = load ptr, ptr %50, align 8
  %52 = getelementptr inbounds nuw i8, ptr %1, i64 8
  %53 = load ptr, ptr %52, align 8
  %54 = tail call zeroext i1 @Curl_safecmp(ptr noundef %51, ptr noundef %53) #18
  br i1 %54, label %55, label %97

55:                                               ; preds = %49
  %56 = getelementptr inbounds nuw i8, ptr %0, i64 16
  %57 = load ptr, ptr %56, align 8
  %58 = getelementptr inbounds nuw i8, ptr %1, i64 16
  %59 = load ptr, ptr %58, align 8
  %60 = tail call zeroext i1 @Curl_safecmp(ptr noundef %57, ptr noundef %59) #18
  br i1 %60, label %61, label %97

61:                                               ; preds = %55
  %62 = getelementptr inbounds nuw i8, ptr %0, i64 24
  %63 = load ptr, ptr %62, align 8
  %64 = getelementptr inbounds nuw i8, ptr %1, i64 24
  %65 = load ptr, ptr %64, align 8
  %66 = tail call zeroext i1 @Curl_safecmp(ptr noundef %63, ptr noundef %65) #18
  br i1 %66, label %67, label %97

67:                                               ; preds = %61
  %68 = getelementptr inbounds nuw i8, ptr %0, i64 32
  %69 = load ptr, ptr %68, align 8
  %70 = getelementptr inbounds nuw i8, ptr %1, i64 32
  %71 = load ptr, ptr %70, align 8
  %72 = tail call i32 @curl_strequal(ptr noundef %69, ptr noundef %71) #18
  %.not = icmp eq i32 %72, 0
  br i1 %.not, label %97, label %73

73:                                               ; preds = %67
  %74 = getelementptr inbounds nuw i8, ptr %0, i64 40
  %75 = load ptr, ptr %74, align 8
  %76 = getelementptr inbounds nuw i8, ptr %1, i64 40
  %77 = load ptr, ptr %76, align 8
  %78 = tail call i32 @curl_strequal(ptr noundef %75, ptr noundef %77) #18
  %.not37 = icmp eq i32 %78, 0
  br i1 %.not37, label %97, label %79

79:                                               ; preds = %73
  %80 = getelementptr inbounds nuw i8, ptr %0, i64 88
  %81 = load ptr, ptr %80, align 8
  %82 = getelementptr inbounds nuw i8, ptr %1, i64 88
  %83 = load ptr, ptr %82, align 8
  %84 = tail call i32 @curl_strequal(ptr noundef %81, ptr noundef %83) #18
  %.not38 = icmp eq i32 %84, 0
  br i1 %.not38, label %97, label %85

85:                                               ; preds = %79
  %86 = getelementptr inbounds nuw i8, ptr %0, i64 56
  %87 = load ptr, ptr %86, align 8
  %88 = getelementptr inbounds nuw i8, ptr %1, i64 56
  %89 = load ptr, ptr %88, align 8
  %90 = tail call i32 @curl_strequal(ptr noundef %87, ptr noundef %89) #18
  %.not39 = icmp eq i32 %90, 0
  br i1 %.not39, label %97, label %91

91:                                               ; preds = %85
  %92 = getelementptr inbounds nuw i8, ptr %0, i64 48
  %93 = load ptr, ptr %92, align 8
  %94 = getelementptr inbounds nuw i8, ptr %1, i64 48
  %95 = load ptr, ptr %94, align 8
  %96 = tail call i32 @curl_strequal(ptr noundef %93, ptr noundef %95) #18
  %.not40 = icmp eq i32 %96, 0
  br i1 %.not40, label %97, label %98

97:                                               ; preds = %91, %85, %79, %73, %67, %61, %55, %49, %45, %39, %33, %27, %20, %14, %8, %2
  br label %98

98:                                               ; preds = %91, %97
  %.0 = phi i1 [ false, %97 ], [ true, %91 ]
  ret i1 %.0
}